target datalayout = "e-m:e-p270:32:32-p271:32:32-p272:64:64-i64:64-i128:128-f80:128-n8:16:32:64-S128"
target triple = "x86_64-pc-linux-gnu"

%"struct.osgeo::proj::operation::MethodMapping" = type { ptr, i32, ptr, ptr, ptr, ptr }

; Function Attrs: mustprogress nounwind uwtable
define hidden noundef ptr @_ZN5osgeo4proj9operation10getMappingEPKc(ptr noundef %0) #2 {
  %2 = alloca ptr, align 8
  %3 = alloca ptr, align 8
  %4 = alloca ptr, align 8
  %5 = alloca ptr, align 8
  %6 = alloca ptr, align 8
  %7 = alloca i32, align 4
  %8 = alloca ptr, align 8
  %9 = alloca ptr, align 8
  %10 = alloca ptr, align 8
  %11 = alloca ptr, align 8
  %12 = alloca ptr, align 8
  store ptr %0, ptr %3, align 8, !tbaa !12
  call void @llvm.lifetime.start.p0(i64 8, ptr %4) #17
  store ptr @_ZN5osgeo4proj9operationL25gProjectionMethodMappingsE, ptr %4, align 8, !tbaa !21
  call void @llvm.lifetime.start.p0(i64 8, ptr %5) #17
  store ptr @_ZN5osgeo4proj9operationL25gProjectionMethodMappingsE, ptr %5, align 8, !tbaa !21
  call void @llvm.lifetime.start.p0(i64 8, ptr %6) #17
  store ptr getelementptr inbounds (%"struct.osgeo::proj::operation::MethodMapping", ptr @_ZN5osgeo4proj9operationL25gProjectionMethodMappingsE, i64 98), ptr %6, align 8, !tbaa !21
  br label %13

13:                                               ; preds = %31, %1
  %14 = load ptr, ptr %5, align 8, !tbaa !21
  %15 = load ptr, ptr %6, align 8, !tbaa !21
  %16 = icmp ne ptr %14, %15
  br i1 %16, label %18, label %17

17:                                               ; preds = %13
  store i32 2, ptr %7, align 4
  br label %34

18:                                               ; preds = %13
  call void @llvm.lifetime.start.p0(i64 8, ptr %8) #17
  %19 = load ptr, ptr %5, align 8, !tbaa !21
  store ptr %19, ptr %8, align 8, !tbaa !21
  %20 = load ptr, ptr %8, align 8, !tbaa !21
  %21 = getelementptr inbounds nuw %"struct.osgeo::proj::operation::MethodMapping", ptr %20, i32 0, i32 0
  %22 = load ptr, ptr %21, align 8, !tbaa !31
  %23 = load ptr, ptr %3, align 8, !tbaa !12
  %24 = call noundef zeroext i1 @_ZN5osgeo4proj8metadata10Identifier16isEquivalentNameEPKcS4_(ptr noundef %22, ptr noundef %23) #17
  br i1 %24, label %25, label %27

25:                                               ; preds = %18
  %26 = load ptr, ptr %8, align 8, !tbaa !21
  store ptr %26, ptr %2, align 8
  store i32 1, ptr %7, align 4
  br label %28

27:                                               ; preds = %18
  store i32 0, ptr %7, align 4
  br label %28

28:                                               ; preds = %27, %25
  call void @llvm.lifetime.end.p0(i64 8, ptr %8) #17
  %29 = load i32, ptr %7, align 4
  switch i32 %29, label %34 [
    i32 0, label %30
  ]

30:                                               ; preds = %28
  br label %31

31:                                               ; preds = %30
  %32 = load ptr, ptr %5, align 8, !tbaa !21
  %33 = getelementptr inbounds nuw %"struct.osgeo::proj::operation::MethodMapping", ptr %32, i32 1
  store ptr %33, ptr %5, align 8, !tbaa !21
  br label %13

34:                                               ; preds = %28, %17
  call void @llvm.lifetime.end.p0(i64 8, ptr %6) #17
  call void @llvm.lifetime.end.p0(i64 8, ptr %5) #17
  call void @llvm.lifetime.end.p0(i64 8, ptr %4) #17
  %35 = load i32, ptr %7, align 4
  switch i32 %35, label %63 [
    i32 2, label %36
    i32 1, label %61
  ]

36:                                               ; preds = %34
  call void @llvm.lifetime.start.p0(i64 8, ptr %9) #17
  store ptr @_ZN5osgeo4proj9operationL20gOtherMethodMappingsE, ptr %9, align 8, !tbaa !21
  call void @llvm.lifetime.start.p0(i64 8, ptr %10) #17
  store ptr @_ZN5osgeo4proj9operationL20gOtherMethodMappingsE, ptr %10, align 8, !tbaa !21
  call void @llvm.lifetime.start.p0(i64 8, ptr %11) #17
  store ptr getelementptr inbounds (%"struct.osgeo::proj::operation::MethodMapping", ptr @_ZN5osgeo4proj9operationL20gOtherMethodMappingsE, i64 58), ptr %11, align 8, !tbaa !21
  br label %37

37:                                               ; preds = %55, %36
  %38 = load ptr, ptr %10, align 8, !tbaa !21
  %39 = load ptr, ptr %11, align 8, !tbaa !21
  %40 = icmp ne ptr %38, %39
  br i1 %40, label %42, label %41

41:                                               ; preds = %37
  store i32 4, ptr %7, align 4
  br label %58

42:                                               ; preds = %37
  call void @llvm.lifetime.start.p0(i64 8, ptr %12) #17
  %43 = load ptr, ptr %10, align 8, !tbaa !21
  store ptr %43, ptr %12, align 8, !tbaa !21
  %44 = load ptr, ptr %12, align 8, !tbaa !21
  %45 = getelementptr inbounds nuw %"struct.osgeo::proj::operation::MethodMapping", ptr %44, i32 0, i32 0
  %46 = load ptr, ptr %45, align 8, !tbaa !31
  %47 = load ptr, ptr %3, align 8, !tbaa !12
  %48 = call noundef zeroext i1 @_ZN5osgeo4proj8metadata10Identifier16isEquivalentNameEPKcS4_(ptr noundef %46, ptr noundef %47) #17
  br i1 %48, label %49, label %51

49:                                               ; preds = %42
  %50 = load ptr, ptr %12, align 8, !tbaa !21
  store ptr %50, ptr %2, align 8
  store i32 1, ptr %7, align 4
  br label %52

51:                                               ; preds = %42
  store i32 0, ptr %7, align 4
  br label %52

52:                                               ; preds = %51, %49
  call void @llvm.lifetime.end.p0(i64 8, ptr %12) #17
  %53 = load i32, ptr %7, align 4
  switch i32 %53, label %58 [
    i32 0, label %54
  ]

54:                                               ; preds = %52
  br label %55

55:                                               ; preds = %54
  %56 = load ptr, ptr %10, align 8, !tbaa !21
  %57 = getelementptr inbounds nuw %"struct.osgeo::proj::operation::MethodMapping", ptr %56, i32 1
  store ptr %57, ptr %10, align 8, !tbaa !21
  br label %37

58:                                               ; preds = %52, %41
  call void @llvm.lifetime.end.p0(i64 8, ptr %11) #17
  call void @llvm.lifetime.end.p0(i64 8, ptr %10) #17
  call void @llvm.lifetime.end.p0(i64 8, ptr %9) #17
  %59 = load i32, ptr %7, align 4
  switch i32 %59, label %63 [
    i32 4, label %60
    i32 1, label %61
  ]

60:                                               ; preds = %58
  store ptr null, ptr %2, align 8
  br label %61

61:                                               ; preds = %60, %58, %34
  %62 = load ptr, ptr %2, align 8
  ret ptr %62

63:                                               ; preds = %58, %34
  unreachable
}