; Function Attrs: mustprogress nounwind uwtable
define hidden noundef ptr @_ZN5osgeo4proj9operation10getMappingEPKc(ptr noundef %0) local_unnamed_addr #3 {
  br label %2

2:                                                ; preds = %1, %5
  %.019.idx33 = phi i64 [ 0, %1 ], [ %.019.add, %5 ]
  %.019.ptr = getelementptr inbounds nuw i8, ptr @_ZN5osgeo4proj9operationL25gProjectionMethodMappingsE, i64 %.019.idx33
  %3 = load ptr, ptr %.019.ptr, align 16, !tbaa !14
  %4 = tail call noundef zeroext i1 @_ZN5osgeo4proj8metadata10Identifier16isEquivalentNameEPKcS4_(ptr noundef %3, ptr noundef %0) #17
  br i1 %4, label %.thread.loopexit39, label %5

5:                                                ; preds = %2
  %.019.add = add nuw nsw i64 %.019.idx33, 48
  %.not = icmp eq i64 %.019.add, 4704
  br i1 %.not, label %.preheader, label %2

.preheader:                                       ; preds = %5, %8
  %.020.idx36 = phi i64 [ %.020.add, %8 ], [ 0, %5 ]
  %.020.ptr = getelementptr inbounds nuw i8, ptr @_ZN5osgeo4proj9operationL20gOtherMethodMappingsE, i64 %.020.idx36
  %6 = load ptr, ptr %.020.ptr, align 16, !tbaa !14
  %7 = tail call noundef zeroext i1 @_ZN5osgeo4proj8metadata10Identifier16isEquivalentNameEPKcS4_(ptr noundef %6, ptr noundef %0) #17
  br i1 %7, label %.thread.loopexit.split.loop.exit, label %8

8:                                                ; preds = %.preheader
  %.020.add = add nuw nsw i64 %.020.idx36, 48
  %.not25 = icmp eq i64 %.020.add, 2784
  br i1 %.not25, label %.thread, label %.preheader

.thread.loopexit.split.loop.exit:                 ; preds = %.preheader
  %.020.ptr.le = getelementptr inbounds nuw i8, ptr @_ZN5osgeo4proj9operationL20gOtherMethodMappingsE, i64 %.020.idx36
  br label %.thread

.thread.loopexit39:                               ; preds = %2
  %.019.ptr.le = getelementptr inbounds nuw i8, ptr @_ZN5osgeo4proj9operationL25gProjectionMethodMappingsE, i64 %.019.idx33
  br label %.thread

.thread:                                          ; preds = %8, %.thread.loopexit.split.loop.exit, %.thread.loopexit39
  %.3 = phi ptr [ %.019.ptr.le, %.thread.loopexit39 ], [ %.020.ptr.le, %.thread.loopexit.split.loop.exit ], [ null, %8 ]
  ret ptr %.3
}